; Function Attrs: mustprogress nofree norecurse nosync nounwind willreturn memory(write, argmem: readwrite, inaccessiblemem: none) uwtable
define noundef i32 @H5P__encode_uint8_t(ptr noundef readonly captures(none) %0, ptr noundef captures(none) %1, ptr noundef captures(none) %2) local_unnamed_addr #1 {
  %4 = load ptr, ptr %1, align 8
  %.not = icmp eq ptr %4, null
  br i1 %.not, label %8, label %5

5:                                                ; preds = %3
  %6 = load i8, ptr %0, align 1
  %7 = getelementptr inbounds nuw i8, ptr %4, i64 1
  store ptr %7, ptr %1, align 8
  store i8 %6, ptr %4, align 1
  br label %8

8:                                                ; preds = %5, %3
  %9 = load i64, ptr %2, align 8
  %10 = add i64 %9, 1
  store i64 %10, ptr %2, align 8
  ret i32 0
}